target datalayout = "e-m:e-p270:32:32-p271:32:32-p272:64:64-i64:64-i128:128-f80:128-n8:16:32:64-S128"
target triple = "x86_64-pc-linux-gnu"

%struct.FormData_pg_class = type { i32, %struct.nameData, i32, i32, i32, i32, i32, i32, i32, i32, float, i32, i32, i8, i8, i8, i8, i16, i16, i8, i8, i8, i8, i8, i8, i8, i8, i32, i32, i32 }
%struct.nameData = type { [64 x i8] }
%struct.HeapTupleData = type { i32, %struct.ItemPointerData, i32, ptr }
%struct.ItemPointerData = type { %struct.BlockIdData, i16 }
%struct.BlockIdData = type { i16, i16 }
%struct.HeapTupleHeaderData = type { %union.anon, %struct.ItemPointerData, i16, i16, i8, [0 x i8] }
%union.anon = type { %struct.HeapTupleFields }
%struct.HeapTupleFields = type { i32, i32, %union.anon.0 }
%union.anon.0 = type { i32 }
%struct.RangeVar = type { i32, ptr, ptr, ptr, i8, i8, ptr, i32 }

@.str.2 = private unnamed_addr constant [9 x i8] c"policy.c\00", align 1
@.str.4 = private unnamed_addr constant [20 x i8] c"\22%s\22 is not a table\00", align 1
@allowSystemTableMods = external global i8, align 1
@.str.5 = private unnamed_addr constant [44 x i8] c"permission denied: \22%s\22 is a system catalog\00", align 1
@__func__.RangeVarCallbackForPolicy = private unnamed_addr constant [26 x i8] c"RangeVarCallbackForPolicy\00", align 1

; Function Attrs: inlinehint nounwind uwtable
define internal ptr @GETSTRUCT(ptr noundef %0) #3 {
  %2 = alloca ptr, align 8
  store ptr %0, ptr %2, align 8
  %3 = load ptr, ptr %2, align 8
  %4 = getelementptr inbounds nuw %struct.HeapTupleData, ptr %3, i32 0, i32 3
  %5 = load ptr, ptr %4, align 8
  %6 = load ptr, ptr %2, align 8
  %7 = getelementptr inbounds nuw %struct.HeapTupleData, ptr %6, i32 0, i32 3
  %8 = load ptr, ptr %7, align 8
  %9 = getelementptr inbounds nuw %struct.HeapTupleHeaderData, ptr %8, i32 0, i32 4
  %10 = load i8, ptr %9, align 2
  %11 = zext i8 %10 to i32
  %12 = sext i32 %11 to i64
  %13 = getelementptr inbounds i8, ptr %5, i64 %12
  ret ptr %13
}

; Function Attrs: inlinehint nounwind uwtable
define internal i64 @ObjectIdGetDatum(i32 noundef %0) #3 {
  %2 = alloca i32, align 4
  store i32 %0, ptr %2, align 4
  %3 = load i32, ptr %2, align 4
  %4 = zext i32 %3 to i64
  ret i64 %4
}

; Function Attrs: nounwind uwtable
define internal void @RangeVarCallbackForPolicy(ptr noundef %0, i32 noundef %1, i32 noundef %2, ptr noundef %3) #0 {
  %5 = alloca ptr, align 8
  %6 = alloca i32, align 4
  %7 = alloca i32, align 4
  %8 = alloca ptr, align 8
  %9 = alloca ptr, align 8
  %10 = alloca ptr, align 8
  %11 = alloca i8, align 1
  %12 = alloca i32, align 4
  store ptr %0, ptr %5, align 8
  store i32 %1, ptr %6, align 4
  store i32 %2, ptr %7, align 4
  store ptr %3, ptr %8, align 8
  call void @llvm.lifetime.start.p0(i64 8, ptr %9) #8
  call void @llvm.lifetime.start.p0(i64 8, ptr %10) #8
  call void @llvm.lifetime.start.p0(i64 1, ptr %11) #8
  %13 = load i32, ptr %6, align 4
  %14 = call i64 @ObjectIdGetDatum(i32 noundef %13)
  %15 = call ptr @SearchSysCache1(i32 noundef 57, i64 noundef %14)
  store ptr %15, ptr %9, align 8
  %16 = load ptr, ptr %9, align 8
  %17 = icmp ne ptr %16, null
  br i1 %17, label %19, label %18

18:                                               ; preds = %4
  store i32 1, ptr %12, align 4
  br label %82

19:                                               ; preds = %4
  %20 = load ptr, ptr %9, align 8
  %21 = call ptr @GETSTRUCT(ptr noundef %20)
  store ptr %21, ptr %10, align 8
  %22 = load ptr, ptr %10, align 8
  %23 = getelementptr inbounds nuw %struct.FormData_pg_class, ptr %22, i32 0, i32 16
  %24 = load i8, ptr %23, align 1
  store i8 %24, ptr %11, align 1
  %25 = load i32, ptr %6, align 4
  %26 = call i32 @GetUserId()
  %27 = call zeroext i1 @object_ownercheck(i32 noundef 1259, i32 noundef %25, i32 noundef %26)
  br i1 %27, label %35, label %28

28:                                               ; preds = %19
  %29 = load i32, ptr %6, align 4
  %30 = call signext i8 @get_rel_relkind(i32 noundef %29)
  %31 = call i32 @get_relkind_objtype(i8 noundef signext %30)
  %32 = load ptr, ptr %5, align 8
  %33 = getelementptr inbounds nuw %struct.RangeVar, ptr %32, i32 0, i32 3
  %34 = load ptr, ptr %33, align 8
  call void @aclcheck_error(i32 noundef 2, i32 noundef %31, ptr noundef %34)
  br label %35

35:                                               ; preds = %28, %19
  %36 = load i8, ptr @allowSystemTableMods, align 1, !range !4, !noundef !5
  %37 = trunc i8 %36 to i1
  br i1 %37, label %57, label %38

38:                                               ; preds = %35
  %39 = load i32, ptr %6, align 4
  %40 = load ptr, ptr %10, align 8
  %41 = call zeroext i1 @IsSystemClass(i32 noundef %39, ptr noundef %40)
  br i1 %41, label %42, label %57

42:                                               ; preds = %38
  br label %43

43:                                               ; preds = %42
  br i1 true, label %44, label %46

44:                                               ; preds = %43
  %45 = call zeroext i1 @errstart_cold(i32 noundef 21, ptr noundef null) #9
  br i1 %45, label %48, label %54

46:                                               ; preds = %43
  %47 = call zeroext i1 @errstart(i32 noundef 21, ptr noundef null)
  br i1 %47, label %48, label %54

48:                                               ; preds = %46, %44
  %49 = call i32 @errcode(i32 noundef 16797828)
  %50 = load ptr, ptr %5, align 8
  %51 = getelementptr inbounds nuw %struct.RangeVar, ptr %50, i32 0, i32 3
  %52 = load ptr, ptr %51, align 8
  %53 = call i32 (ptr, ...) @errmsg(ptr noundef @.str.5, ptr noundef %52)
  call void @errfinish(ptr noundef @.str.2, i32 noundef 87, ptr noundef @__func__.RangeVarCallbackForPolicy)
  br label %54

54:                                               ; preds = %48, %46, %44
  unreachable

55:                                               ; No predecessors!
  br label %56

56:                                               ; preds = %55
  br label %57

57:                                               ; preds = %56, %38, %35
  %58 = load i8, ptr %11, align 1
  %59 = sext i8 %58 to i32
  %60 = icmp ne i32 %59, 114
  br i1 %60, label %61, label %80

61:                                               ; preds = %57
  %62 = load i8, ptr %11, align 1
  %63 = sext i8 %62 to i32
  %64 = icmp ne i32 %63, 112
  br i1 %64, label %65, label %80

65:                                               ; preds = %61
  br label %66

66:                                               ; preds = %65
  br i1 true, label %67, label %69

67:                                               ; preds = %66
  %68 = call zeroext i1 @errstart_cold(i32 noundef 21, ptr noundef null) #9
  br i1 %68, label %71, label %77

69:                                               ; preds = %66
  %70 = call zeroext i1 @errstart(i32 noundef 21, ptr noundef null)
  br i1 %70, label %71, label %77

71:                                               ; preds = %69, %67
  %72 = call i32 @errcode(i32 noundef 151027844)
  %73 = load ptr, ptr %5, align 8
  %74 = getelementptr inbounds nuw %struct.RangeVar, ptr %73, i32 0, i32 3
  %75 = load ptr, ptr %74, align 8
  %76 = call i32 (ptr, ...) @errmsg(ptr noundef @.str.4, ptr noundef %75)
  call void @errfinish(ptr noundef @.str.2, i32 noundef 93, ptr noundef @__func__.RangeVarCallbackForPolicy)
  br label %77

77:                                               ; preds = %71, %69, %67
  unreachable

78:                                               ; No predecessors!
  br label %79

79:                                               ; preds = %78
  br label %80

80:                                               ; preds = %79, %61, %57
  %81 = load ptr, ptr %9, align 8
  call void @ReleaseSysCache(ptr noundef %81)
  store i32 0, ptr %12, align 4
  br label %82

82:                                               ; preds = %80, %18
  call void @llvm.lifetime.end.p0(i64 1, ptr %11) #8
  call void @llvm.lifetime.end.p0(i64 8, ptr %10) #8
  call void @llvm.lifetime.end.p0(i64 8, ptr %9) #8
  %83 = load i32, ptr %12, align 4
  switch i32 %83, label %85 [
    i32 0, label %84
    i32 1, label %84
  ]

84:                                               ; preds = %82, %82
  ret void

85:                                               ; preds = %82
  unreachable
}