; Function Attrs: nounwind uwtable
define internal void @RangeVarCallbackForPolicy(ptr noundef readonly captures(none) %0, i32 noundef %1, i32 %2, ptr readnone captures(none) %3) #0 {
  %5 = zext i32 %1 to i64
  %6 = tail call ptr @SearchSysCache1(i32 noundef 57, i64 noundef %5) #8
  %.not = icmp eq ptr %6, null
  br i1 %.not, label %42, label %7

7:                                                ; preds = %4
  %8 = getelementptr i8, ptr %6, i64 16
  %.val = load ptr, ptr %8, align 8
  %9 = getelementptr inbounds nuw i8, ptr %.val, i64 22
  %10 = load i8, ptr %9, align 2
  %11 = zext i8 %10 to i64
  %12 = getelementptr inbounds nuw i8, ptr %.val, i64 %11
  %13 = getelementptr inbounds nuw i8, ptr %12, i64 115
  %14 = load i8, ptr %13, align 1
  %15 = tail call i32 @GetUserId() #8
  %16 = tail call zeroext i1 @object_ownercheck(i32 noundef 1259, i32 noundef %1, i32 noundef %15) #8
  br i1 %16, label %22, label %17

17:                                               ; preds = %7
  %18 = tail call signext i8 @get_rel_relkind(i32 noundef %1) #8
  %19 = tail call i32 @get_relkind_objtype(i8 noundef signext %18) #8
  %20 = getelementptr inbounds nuw i8, ptr %0, i64 24
  %21 = load ptr, ptr %20, align 8
  tail call void @aclcheck_error(i32 noundef 2, i32 noundef %19, ptr noundef %21) #8
  br label %22

22:                                               ; preds = %17, %7
  %23 = load i8, ptr @allowSystemTableMods, align 1, !range !4, !noundef !5
  %24 = trunc nuw i8 %23 to i1
  br i1 %24, label %33, label %25

25:                                               ; preds = %22
  %26 = tail call zeroext i1 @IsSystemClass(i32 noundef %1, ptr noundef nonnull %12) #8
  br i1 %26, label %27, label %33

27:                                               ; preds = %25
  %28 = tail call zeroext i1 @errstart_cold(i32 noundef 21, ptr noundef null) #9
  tail call void @llvm.assume(i1 %28)
  %29 = tail call i32 @errcode(i32 noundef 16797828) #8
  %30 = getelementptr inbounds nuw i8, ptr %0, i64 24
  %31 = load ptr, ptr %30, align 8
  %32 = tail call i32 (ptr, ...) @errmsg(ptr noundef nonnull @.str.5, ptr noundef %31) #8
  tail call void @errfinish(ptr noundef nonnull @.str.2, i32 noundef 87, ptr noundef nonnull @__func__.RangeVarCallbackForPolicy) #8
  unreachable

33:                                               ; preds = %25, %22
  %34 = and i8 %14, -3
  %or.cond.not = icmp eq i8 %34, 112
  br i1 %or.cond.not, label %41, label %35

35:                                               ; preds = %33
  %36 = tail call zeroext i1 @errstart_cold(i32 noundef 21, ptr noundef null) #9
  tail call void @llvm.assume(i1 %36)
  %37 = tail call i32 @errcode(i32 noundef 151027844) #8
  %38 = getelementptr inbounds nuw i8, ptr %0, i64 24
  %39 = load ptr, ptr %38, align 8
  %40 = tail call i32 (ptr, ...) @errmsg(ptr noundef nonnull @.str.4, ptr noundef %39) #8
  tail call void @errfinish(ptr noundef nonnull @.str.2, i32 noundef 93, ptr noundef nonnull @__func__.RangeVarCallbackForPolicy) #8
  unreachable

41:                                               ; preds = %33
  tail call void @ReleaseSysCache(ptr noundef nonnull %6) #8
  br label %42

42:                                               ; preds = %4, %41
  ret void
}